target datalayout = "e-m:e-p270:32:32-p271:32:32-p272:64:64-i64:64-i128:128-f80:128-n8:16:32:64-S128"
target triple = "x86_64-pc-linux-gnu"

; Function Attrs: nounwind uwtable
define internal i32 @psa_is_dh_key_size_valid(i64 noundef %0) #0 {
  %2 = alloca i32, align 4
  %3 = alloca i64, align 8
  store i64 %0, ptr %3, align 8, !tbaa !20
  %4 = load i64, ptr %3, align 8, !tbaa !20
  switch i64 %4, label %10 [
    i64 2048, label %5
    i64 3072, label %6
    i64 4096, label %7
    i64 6144, label %8
    i64 8192, label %9
  ]

5:                                                ; preds = %1
  store i32 1, ptr %2, align 4
  br label %11

6:                                                ; preds = %1
  store i32 1, ptr %2, align 4
  br label %11

7:                                                ; preds = %1
  store i32 1, ptr %2, align 4
  br label %11

8:                                                ; preds = %1
  store i32 1, ptr %2, align 4
  br label %11

9:                                                ; preds = %1
  store i32 1, ptr %2, align 4
  br label %11

10:                                               ; preds = %1
  store i32 0, ptr %2, align 4
  br label %11

11:                                               ; preds = %10, %9, %8, %7, %6, %5
  %12 = load i32, ptr %2, align 4
  ret i32 %12
}

; Function Attrs: nounwind uwtable
define internal i32 @key_type_is_raw_bytes(i16 noundef zeroext %0) #0 {
  %2 = alloca i16, align 2
  store i16 %0, ptr %2, align 2, !tbaa !18
  %3 = load i16, ptr %2, align 2, !tbaa !18
  %4 = zext i16 %3 to i32
  %5 = and i32 %4, 28672
  %6 = icmp eq i32 %5, 4096
  br i1 %6, label %12, label %7

7:                                                ; preds = %1
  %8 = load i16, ptr %2, align 2, !tbaa !18
  %9 = zext i16 %8 to i32
  %10 = and i32 %9, 28672
  %11 = icmp eq i32 %10, 8192
  br label %12

12:                                               ; preds = %7, %1
  %13 = phi i1 [ true, %1 ], [ %11, %7 ]
  %14 = zext i1 %13 to i32
  ret i32 %14
}

; Function Attrs: nounwind uwtable
define internal i32 @psa_validate_key_type_and_size_for_key_generation(i16 noundef zeroext %0, i64 noundef %1) #0 {
  %3 = alloca i32, align 4
  %4 = alloca i16, align 2
  %5 = alloca i64, align 8
  %6 = alloca i32, align 4
  %7 = alloca i32, align 4
  store i16 %0, ptr %4, align 2, !tbaa !18
  store i64 %1, ptr %5, align 8, !tbaa !20
  call void @llvm.lifetime.start.p0(i64 4, ptr %6) #8
  store i32 -151, ptr %6, align 4, !tbaa !3
  %8 = load i16, ptr %4, align 2, !tbaa !18
  %9 = call i32 @key_type_is_raw_bytes(i16 noundef zeroext %8)
  %10 = icmp ne i32 %9, 0
  br i1 %10, label %11, label %20

11:                                               ; preds = %2
  %12 = load i16, ptr %4, align 2, !tbaa !18
  %13 = load i64, ptr %5, align 8, !tbaa !20
  %14 = call i32 @psa_validate_unstructured_key_bit_size(i16 noundef zeroext %12, i64 noundef %13)
  store i32 %14, ptr %6, align 4, !tbaa !3
  %15 = load i32, ptr %6, align 4, !tbaa !3
  %16 = icmp ne i32 %15, 0
  br i1 %16, label %17, label %19

17:                                               ; preds = %11
  %18 = load i32, ptr %6, align 4, !tbaa !3
  store i32 %18, ptr %3, align 4
  store i32 1, ptr %7, align 4
  br label %78

19:                                               ; preds = %11
  br label %77

20:                                               ; preds = %2
  %21 = load i16, ptr %4, align 2, !tbaa !18
  %22 = zext i16 %21 to i32
  %23 = and i32 %22, -12289
  %24 = icmp eq i32 %23, 16385
  br i1 %24, label %25, label %44

25:                                               ; preds = %20
  %26 = load i16, ptr %4, align 2, !tbaa !18
  %27 = zext i16 %26 to i32
  %28 = and i32 %27, 28672
  %29 = icmp eq i32 %28, 28672
  br i1 %29, label %30, label %44

30:                                               ; preds = %25
  %31 = load i64, ptr %5, align 8, !tbaa !20
  %32 = icmp ugt i64 %31, 4096
  br i1 %32, label %33, label %34

33:                                               ; preds = %30
  store i32 -134, ptr %3, align 4
  store i32 1, ptr %7, align 4
  br label %78

34:                                               ; preds = %30
  %35 = load i64, ptr %5, align 8, !tbaa !20
  %36 = icmp ult i64 %35, 1024
  br i1 %36, label %37, label %38

37:                                               ; preds = %34
  store i32 -134, ptr %3, align 4
  store i32 1, ptr %7, align 4
  br label %78

38:                                               ; preds = %34
  %39 = load i64, ptr %5, align 8, !tbaa !20
  %40 = urem i64 %39, 8
  %41 = icmp ne i64 %40, 0
  br i1 %41, label %42, label %43

42:                                               ; preds = %38
  store i32 -134, ptr %3, align 4
  store i32 1, ptr %7, align 4
  br label %78

43:                                               ; preds = %38
  br label %76

44:                                               ; preds = %25, %20
  %45 = load i16, ptr %4, align 2, !tbaa !18
  %46 = zext i16 %45 to i32
  %47 = and i32 %46, -12289
  %48 = and i32 %47, -256
  %49 = icmp eq i32 %48, 16640
  br i1 %49, label %50, label %56

50:                                               ; preds = %44
  %51 = load i16, ptr %4, align 2, !tbaa !18
  %52 = zext i16 %51 to i32
  %53 = and i32 %52, 28672
  %54 = icmp eq i32 %53, 28672
  br i1 %54, label %55, label %56

55:                                               ; preds = %50
  store i32 0, ptr %3, align 4
  store i32 1, ptr %7, align 4
  br label %78

56:                                               ; preds = %50, %44
  %57 = load i16, ptr %4, align 2, !tbaa !18
  %58 = zext i16 %57 to i32
  %59 = and i32 %58, -12289
  %60 = and i32 %59, -256
  %61 = icmp eq i32 %60, 16896
  br i1 %61, label %62, label %73

62:                                               ; preds = %56
  %63 = load i16, ptr %4, align 2, !tbaa !18
  %64 = zext i16 %63 to i32
  %65 = and i32 %64, 28672
  %66 = icmp eq i32 %65, 28672
  br i1 %66, label %67, label %73

67:                                               ; preds = %62
  %68 = load i64, ptr %5, align 8, !tbaa !20
  %69 = call i32 @psa_is_dh_key_size_valid(i64 noundef %68)
  %70 = icmp eq i32 %69, 0
  br i1 %70, label %71, label %72

71:                                               ; preds = %67
  store i32 -134, ptr %3, align 4
  store i32 1, ptr %7, align 4
  br label %78

72:                                               ; preds = %67
  br label %74

73:                                               ; preds = %62, %56
  store i32 -134, ptr %3, align 4
  store i32 1, ptr %7, align 4
  br label %78

74:                                               ; preds = %72
  br label %75

75:                                               ; preds = %74
  br label %76

76:                                               ; preds = %75, %43
  br label %77

77:                                               ; preds = %76, %19
  store i32 0, ptr %3, align 4
  store i32 1, ptr %7, align 4
  br label %78

78:                                               ; preds = %77, %73, %71, %55, %42, %37, %33, %17
  call void @llvm.lifetime.end.p0(i64 4, ptr %6) #8
  %79 = load i32, ptr %3, align 4
  ret i32 %79
}