; Function Attrs: mustprogress nofree norecurse nosync nounwind willreturn memory(none) uwtable
define internal fastcc range(i32 -135, 1) i32 @psa_validate_key_type_and_size_for_key_generation(i16 noundef zeroext %0, i64 noundef range(i64 0, 65536) %1) unnamed_addr #1 {
  %3 = and i16 %0, 28672
  switch i16 %3, label %6 [
    i16 8192, label %4
    i16 4096, label %4
  ]

4:                                                ; preds = %2, %2
  %5 = tail call i32 @psa_validate_unstructured_key_bit_size(i16 noundef zeroext %0, i64 noundef %1)
  %.not19 = icmp eq i32 %5, 0
  br i1 %.not19, label %psa_is_dh_key_size_valid.exit, label %psa_is_dh_key_size_valid.exit.thread

6:                                                ; preds = %2
  %or.cond = icmp eq i16 %0, 28673
  br i1 %or.cond, label %7, label %10

7:                                                ; preds = %6
  %8 = add nsw i64 %1, -1024
  %or.cond25 = icmp ult i64 %8, 3073
  %9 = and i64 %1, 7
  %.not18 = icmp eq i64 %9, 0
  %or.cond26 = and i1 %or.cond25, %.not18
  br i1 %or.cond26, label %psa_is_dh_key_size_valid.exit, label %psa_is_dh_key_size_valid.exit.thread

10:                                               ; preds = %6
  %11 = and i16 %0, -256
  switch i16 %11, label %psa_is_dh_key_size_valid.exit.thread.fold.split [
    i16 28928, label %psa_is_dh_key_size_valid.exit.thread
    i16 29184, label %12
  ]

12:                                               ; preds = %10
  %13 = add nsw i64 %1, -2048
  %14 = tail call i64 @llvm.fshl.i64(i64 %13, i64 %13, i64 54)
  %15 = icmp ult i64 %14, 7
  br i1 %15, label %switch.lookup, label %psa_is_dh_key_size_valid.exit.thread

psa_is_dh_key_size_valid.exit:                    ; preds = %7, %4
  br label %psa_is_dh_key_size_valid.exit.thread

psa_is_dh_key_size_valid.exit.thread.fold.split:  ; preds = %10
  br label %psa_is_dh_key_size_valid.exit.thread

switch.lookup:                                    ; preds = %12
  %switch.gep = getelementptr inbounds nuw [7 x i32], ptr @switch.table.psa_validate_key_type_and_size_for_key_generation, i64 0, i64 %14
  %switch.load = load i32, ptr %switch.gep, align 4
  br label %psa_is_dh_key_size_valid.exit.thread

psa_is_dh_key_size_valid.exit.thread:             ; preds = %switch.lookup, %12, %10, %psa_is_dh_key_size_valid.exit.thread.fold.split, %7, %4, %psa_is_dh_key_size_valid.exit
  %.0 = phi i32 [ 0, %psa_is_dh_key_size_valid.exit ], [ %5, %4 ], [ -134, %7 ], [ 0, %10 ], [ -134, %12 ], [ -134, %psa_is_dh_key_size_valid.exit.thread.fold.split ], [ %switch.load, %switch.lookup ]
  ret i32 %.0
}